; Function Attrs: nounwind sspstrong uwtable
define internal void @virtio_pci_save_queue(ptr noundef %0, i32 noundef %1, ptr noundef %2) #0 {
  %4 = getelementptr i8, ptr %0, i64 34160
  %.val = load ptr, ptr %4, align 8
  %.not.i = icmp eq ptr %.val, null
  br i1 %.not.i, label %virtio_bus_get_device.exit, label %5

5:                                                ; preds = %3
  %6 = getelementptr inbounds nuw i8, ptr %.val, i64 16
  %7 = load ptr, ptr %6, align 8
  br label %virtio_bus_get_device.exit

virtio_bus_get_device.exit:                       ; preds = %3, %5
  %8 = phi ptr [ %7, %5 ], [ null, %3 ]
  %9 = tail call i32 @msix_present(ptr noundef nonnull %0) #15
  %.not = icmp eq i32 %9, 0
  br i1 %.not, label %13, label %10

10:                                               ; preds = %virtio_bus_get_device.exit
  %11 = tail call zeroext i16 @virtio_queue_vector(ptr noundef %8, i32 noundef %1) #15
  %12 = zext i16 %11 to i32
  tail call void @qemu_put_be16(ptr noundef %2, i32 noundef %12) #15
  br label %13

13:                                               ; preds = %10, %virtio_bus_get_device.exit
  ret void
}